target datalayout = "e-m:e-p270:32:32-p271:32:32-p272:64:64-i64:64-i128:128-f80:128-n8:16:32:64-S128"
target triple = "x86_64-pc-linux-gnu"

%"struct.llvm::SimplifyQuery" = type <{ ptr, ptr, ptr, ptr, ptr, ptr, ptr, %"struct.llvm::InstrInfoQuery", i8, [6 x i8] }>
%"struct.llvm::InstrInfoQuery" = type { i8 }
%"class.llvm::InstCombiner" = type <{ ptr, ptr, i64, ptr, ptr, i8, [7 x i8], ptr, ptr, ptr, ptr, ptr, %"struct.llvm::SimplifyQuery", ptr, ptr, ptr, ptr, %"class.llvm::DomConditionCache", ptr, i8, [7 x i8], %"class.llvm::SmallDenseSet", %"class.llvm::SmallDenseMap.1", %"class.llvm::SmallDenseSet.4", i8, [7 x i8] }>
%"class.llvm::DomConditionCache" = type { %"class.llvm::DenseMap" }
%"class.llvm::DenseMap" = type <{ ptr, i32, i32, i32, [4 x i8] }>
%"class.llvm::SmallDenseSet" = type { %"class.llvm::detail::DenseSetImpl" }
%"class.llvm::detail::DenseSetImpl" = type { %"class.llvm::SmallDenseMap" }
%"class.llvm::SmallDenseMap" = type { i32, i32, %"struct.llvm::AlignedCharArrayUnion" }
%"struct.llvm::AlignedCharArrayUnion" = type { [128 x i8] }
%"class.llvm::SmallDenseMap.1" = type { i32, i32, %"struct.llvm::AlignedCharArrayUnion.3" }
%"struct.llvm::AlignedCharArrayUnion.3" = type { [576 x i8] }
%"class.llvm::SmallDenseSet.4" = type { %"class.llvm::detail::DenseSetImpl.5" }
%"class.llvm::detail::DenseSetImpl.5" = type { %"class.llvm::SmallDenseMap.6" }
%"class.llvm::SmallDenseMap.6" = type { i32, i32, %"struct.llvm::AlignedCharArrayUnion.8" }
%"struct.llvm::AlignedCharArrayUnion.8" = type { [128 x i8] }
%class.anon.187 = type { ptr, ptr, ptr, ptr }

; Function Attrs: mustprogress nounwind uwtable
define linkonce_odr hidden void @_ZNK4llvm13SimplifyQuery18getWithInstructionEPKNS_11InstructionE(ptr dead_on_unwind noalias writable sret(%"struct.llvm::SimplifyQuery") align 8 %0, ptr noundef nonnull align 8 dereferenceable(58) %1, ptr noundef %2) #0 comdat align 2 {
  %4 = alloca ptr, align 8
  %5 = alloca ptr, align 8
  store ptr %1, ptr %4, align 8
  store ptr %2, ptr %5, align 8
  %6 = load ptr, ptr %4, align 8
  call void @llvm.memcpy.p0.p0.i64(ptr align 8 %0, ptr align 8 %6, i64 64, i1 false)
  %7 = load ptr, ptr %5, align 8
  %8 = getelementptr inbounds nuw %"struct.llvm::SimplifyQuery", ptr %0, i32 0, i32 4
  store ptr %7, ptr %8, align 8
  ret void
}

; Function Attrs: mustprogress nounwind uwtable
define linkonce_odr hidden noundef i32 @_ZNK4llvm12InstCombiner29computeOverflowForUnsignedSubEPKNS_5ValueES3_PKNS_11InstructionE(ptr noundef nonnull align 8 dereferenceable(1081) %0, ptr noundef %1, ptr noundef %2, ptr noundef %3) #0 comdat align 2 {
  %5 = alloca ptr, align 8
  %6 = alloca ptr, align 8
  %7 = alloca ptr, align 8
  %8 = alloca ptr, align 8
  %9 = alloca %"struct.llvm::SimplifyQuery", align 8
  store ptr %0, ptr %5, align 8
  store ptr %1, ptr %6, align 8
  store ptr %2, ptr %7, align 8
  store ptr %3, ptr %8, align 8
  %10 = load ptr, ptr %5, align 8
  %11 = load ptr, ptr %6, align 8
  %12 = load ptr, ptr %7, align 8
  %13 = getelementptr inbounds nuw %"class.llvm::InstCombiner", ptr %10, i32 0, i32 12
  %14 = load ptr, ptr %8, align 8
  call void @_ZNK4llvm13SimplifyQuery18getWithInstructionEPKNS_11InstructionE(ptr dead_on_unwind writable sret(%"struct.llvm::SimplifyQuery") align 8 %9, ptr noundef nonnull align 8 dereferenceable(58) %13, ptr noundef %14)
  %15 = call noundef i32 @_ZN4llvm29computeOverflowForUnsignedSubEPKNS_5ValueES2_RKNS_13SimplifyQueryE(ptr noundef %11, ptr noundef %12, ptr noundef nonnull align 8 dereferenceable(58) %9)
  ret i32 %15
}

; Function Attrs: mustprogress nounwind uwtable
define linkonce_odr hidden noundef i32 @_ZNK4llvm12InstCombiner27computeOverflowForSignedSubEPKNS_5ValueES3_PKNS_11InstructionE(ptr noundef nonnull align 8 dereferenceable(1081) %0, ptr noundef %1, ptr noundef %2, ptr noundef %3) #0 comdat align 2 {
  %5 = alloca ptr, align 8
  %6 = alloca ptr, align 8
  %7 = alloca ptr, align 8
  %8 = alloca ptr, align 8
  %9 = alloca %"struct.llvm::SimplifyQuery", align 8
  store ptr %0, ptr %5, align 8
  store ptr %1, ptr %6, align 8
  store ptr %2, ptr %7, align 8
  store ptr %3, ptr %8, align 8
  %10 = load ptr, ptr %5, align 8
  %11 = load ptr, ptr %6, align 8
  %12 = load ptr, ptr %7, align 8
  %13 = getelementptr inbounds nuw %"class.llvm::InstCombiner", ptr %10, i32 0, i32 12
  %14 = load ptr, ptr %8, align 8
  call void @_ZNK4llvm13SimplifyQuery18getWithInstructionEPKNS_11InstructionE(ptr dead_on_unwind writable sret(%"struct.llvm::SimplifyQuery") align 8 %9, ptr noundef nonnull align 8 dereferenceable(58) %13, ptr noundef %14)
  %15 = call noundef i32 @_ZN4llvm27computeOverflowForSignedSubEPKNS_5ValueES2_RKNS_13SimplifyQueryE(ptr noundef %11, ptr noundef %12, ptr noundef nonnull align 8 dereferenceable(58) %9)
  ret i32 %15
}

; Function Attrs: mustprogress nounwind uwtable
define linkonce_odr hidden noundef zeroext i1 @_ZNK4llvm16InstCombinerImpl26willNotOverflowUnsignedSubEPKNS_5ValueES3_RKNS_11InstructionE(ptr noundef nonnull align 8 dereferenceable(1088) %0, ptr noundef %1, ptr noundef %2, ptr noundef nonnull align 8 dereferenceable(72) %3) #0 comdat align 2 {
  %5 = alloca ptr, align 8
  %6 = alloca ptr, align 8
  %7 = alloca ptr, align 8
  %8 = alloca ptr, align 8
  store ptr %0, ptr %5, align 8
  store ptr %1, ptr %6, align 8
  store ptr %2, ptr %7, align 8
  store ptr %3, ptr %8, align 8
  %9 = load ptr, ptr %5, align 8
  %10 = load ptr, ptr %6, align 8
  %11 = load ptr, ptr %7, align 8
  %12 = load ptr, ptr %8, align 8
  %13 = call noundef i32 @_ZNK4llvm12InstCombiner29computeOverflowForUnsignedSubEPKNS_5ValueES3_PKNS_11InstructionE(ptr noundef nonnull align 8 dereferenceable(1081) %9, ptr noundef %10, ptr noundef %11, ptr noundef %12)
  %14 = icmp eq i32 %13, 3
  ret i1 %14
}

; Function Attrs: mustprogress nounwind uwtable
define linkonce_odr hidden noundef zeroext i1 @_ZNK4llvm16InstCombinerImpl24willNotOverflowSignedSubEPKNS_5ValueES3_RKNS_11InstructionE(ptr noundef nonnull align 8 dereferenceable(1088) %0, ptr noundef %1, ptr noundef %2, ptr noundef nonnull align 8 dereferenceable(72) %3) #0 comdat align 2 {
  %5 = alloca ptr, align 8
  %6 = alloca ptr, align 8
  %7 = alloca ptr, align 8
  %8 = alloca ptr, align 8
  store ptr %0, ptr %5, align 8
  store ptr %1, ptr %6, align 8
  store ptr %2, ptr %7, align 8
  store ptr %3, ptr %8, align 8
  %9 = load ptr, ptr %5, align 8
  %10 = load ptr, ptr %6, align 8
  %11 = load ptr, ptr %7, align 8
  %12 = load ptr, ptr %8, align 8
  %13 = call noundef i32 @_ZNK4llvm12InstCombiner27computeOverflowForSignedSubEPKNS_5ValueES3_PKNS_11InstructionE(ptr noundef nonnull align 8 dereferenceable(1081) %9, ptr noundef %10, ptr noundef %11, ptr noundef %12)
  %14 = icmp eq i32 %13, 3
  ret i1 %14
}

; Function Attrs: mustprogress nounwind uwtable
define internal noundef ptr @"_ZZN4llvm16InstCombinerImpl8visitSubERNS_14BinaryOperatorEENK3$_1clEv"(ptr noundef nonnull align 8 dereferenceable(32) %0) #0 align 2 {
  %2 = alloca ptr, align 8
  %3 = alloca ptr, align 8
  %4 = alloca ptr, align 8
  %5 = alloca i8, align 1
  store ptr %0, ptr %3, align 8
  %6 = load ptr, ptr %3, align 8
  %7 = getelementptr inbounds nuw %class.anon.187, ptr %6, i32 0, i32 0
  %8 = load ptr, ptr %7, align 8
  %9 = getelementptr inbounds nuw %class.anon.187, ptr %6, i32 0, i32 1
  %10 = load ptr, ptr %9, align 8
  %11 = call noundef ptr @_ZN4llvm16InstCombinerImpl22narrowMathIfNoOverflowERNS_14BinaryOperatorE(ptr noundef nonnull align 8 dereferenceable(1088) %8, ptr noundef nonnull align 8 dereferenceable(72) %10)
  store ptr %11, ptr %4, align 8
  %12 = load ptr, ptr %4, align 8
  %13 = icmp ne ptr %12, null
  br i1 %13, label %14, label %16

14:                                               ; preds = %1
  %15 = load ptr, ptr %4, align 8
  store ptr %15, ptr %2, align 8
  br label %59

16:                                               ; preds = %1
  store i8 0, ptr %5, align 1
  %17 = getelementptr inbounds nuw %class.anon.187, ptr %6, i32 0, i32 1
  %18 = load ptr, ptr %17, align 8
  %19 = call noundef zeroext i1 @_ZNK4llvm11Instruction15hasNoSignedWrapEv(ptr noundef nonnull align 8 dereferenceable(72) %18) #11
  br i1 %19, label %33, label %20

20:                                               ; preds = %16
  %21 = getelementptr inbounds nuw %class.anon.187, ptr %6, i32 0, i32 2
  %22 = load ptr, ptr %21, align 8
  %23 = load ptr, ptr %22, align 8
  %24 = getelementptr inbounds nuw %class.anon.187, ptr %6, i32 0, i32 3
  %25 = load ptr, ptr %24, align 8
  %26 = load ptr, ptr %25, align 8
  %27 = getelementptr inbounds nuw %class.anon.187, ptr %6, i32 0, i32 1
  %28 = load ptr, ptr %27, align 8
  %29 = call noundef zeroext i1 @_ZNK4llvm16InstCombinerImpl24willNotOverflowSignedSubEPKNS_5ValueES3_RKNS_11InstructionE(ptr noundef nonnull align 8 dereferenceable(1088) %8, ptr noundef %23, ptr noundef %26, ptr noundef nonnull align 8 dereferenceable(72) %28)
  br i1 %29, label %30, label %33

30:                                               ; preds = %20
  store i8 1, ptr %5, align 1
  %31 = getelementptr inbounds nuw %class.anon.187, ptr %6, i32 0, i32 1
  %32 = load ptr, ptr %31, align 8
  call void @_ZN4llvm11Instruction18setHasNoSignedWrapEb(ptr noundef nonnull align 8 dereferenceable(72) %32, i1 noundef zeroext true)
  br label %33

33:                                               ; preds = %30, %20, %16
  %34 = getelementptr inbounds nuw %class.anon.187, ptr %6, i32 0, i32 1
  %35 = load ptr, ptr %34, align 8
  %36 = call noundef zeroext i1 @_ZNK4llvm11Instruction17hasNoUnsignedWrapEv(ptr noundef nonnull align 8 dereferenceable(72) %35) #11
  br i1 %36, label %50, label %37

37:                                               ; preds = %33
  %38 = getelementptr inbounds nuw %class.anon.187, ptr %6, i32 0, i32 2
  %39 = load ptr, ptr %38, align 8
  %40 = load ptr, ptr %39, align 8
  %41 = getelementptr inbounds nuw %class.anon.187, ptr %6, i32 0, i32 3
  %42 = load ptr, ptr %41, align 8
  %43 = load ptr, ptr %42, align 8
  %44 = getelementptr inbounds nuw %class.anon.187, ptr %6, i32 0, i32 1
  %45 = load ptr, ptr %44, align 8
  %46 = call noundef zeroext i1 @_ZNK4llvm16InstCombinerImpl26willNotOverflowUnsignedSubEPKNS_5ValueES3_RKNS_11InstructionE(ptr noundef nonnull align 8 dereferenceable(1088) %8, ptr noundef %40, ptr noundef %43, ptr noundef nonnull align 8 dereferenceable(72) %45)
  br i1 %46, label %47, label %50

47:                                               ; preds = %37
  store i8 1, ptr %5, align 1
  %48 = getelementptr inbounds nuw %class.anon.187, ptr %6, i32 0, i32 1
  %49 = load ptr, ptr %48, align 8
  call void @_ZN4llvm11Instruction20setHasNoUnsignedWrapEb(ptr noundef nonnull align 8 dereferenceable(72) %49, i1 noundef zeroext true)
  br label %50

50:                                               ; preds = %47, %37, %33
  %51 = load i8, ptr %5, align 1
  %52 = trunc i8 %51 to i1
  br i1 %52, label %53, label %56

53:                                               ; preds = %50
  %54 = getelementptr inbounds nuw %class.anon.187, ptr %6, i32 0, i32 1
  %55 = load ptr, ptr %54, align 8
  br label %57

56:                                               ; preds = %50
  br label %57

57:                                               ; preds = %56, %53
  %58 = phi ptr [ %55, %53 ], [ null, %56 ]
  store ptr %58, ptr %2, align 8
  br label %59

59:                                               ; preds = %57, %14
  %60 = load ptr, ptr %2, align 8
  ret ptr %60
}