; Function Attrs: mustprogress nounwind uwtable
define internal fastcc noundef ptr @"_ZZN4llvm16InstCombinerImpl8visitSubERNS_14BinaryOperatorEENK3$_1clEv"(ptr noundef nonnull readonly align 8 captures(none) dereferenceable(32) %0) unnamed_addr #0 align 2 {
  %2 = alloca %"struct.llvm::SimplifyQuery", align 8
  %3 = alloca %"struct.llvm::SimplifyQuery", align 8
  %4 = load ptr, ptr %0, align 8
  %5 = getelementptr inbounds nuw i8, ptr %0, i64 8
  %6 = load ptr, ptr %5, align 8
  %7 = tail call noundef ptr @_ZN4llvm16InstCombinerImpl22narrowMathIfNoOverflowERNS_14BinaryOperatorE(ptr noundef nonnull align 8 dereferenceable(1088) %4, ptr noundef nonnull align 8 dereferenceable(72) %6) #16
  %.not = icmp eq ptr %7, null
  br i1 %.not, label %8, label %39

8:                                                ; preds = %1
  %9 = load ptr, ptr %5, align 8
  %10 = tail call noundef zeroext i1 @_ZNK4llvm11Instruction15hasNoSignedWrapEv(ptr noundef nonnull align 8 dereferenceable(72) %9) #17
  br i1 %10, label %23, label %11

11:                                               ; preds = %8
  %12 = getelementptr inbounds nuw i8, ptr %0, i64 16
  %13 = load ptr, ptr %12, align 8
  %14 = load ptr, ptr %13, align 8
  %15 = getelementptr inbounds nuw i8, ptr %0, i64 24
  %16 = load ptr, ptr %15, align 8
  %17 = load ptr, ptr %16, align 8
  call void @llvm.lifetime.start.p0(i64 64, ptr nonnull %3)
  %18 = getelementptr inbounds nuw i8, ptr %4, i64 88
  call void @llvm.memcpy.p0.p0.i64(ptr noundef nonnull align 8 dereferenceable(64) %3, ptr noundef nonnull align 8 dereferenceable(64) %18, i64 64, i1 false)
  %19 = getelementptr inbounds nuw i8, ptr %3, i64 32
  store ptr %9, ptr %19, align 8, !alias.scope !245
  %20 = call noundef i32 @_ZN4llvm27computeOverflowForSignedSubEPKNS_5ValueES2_RKNS_13SimplifyQueryE(ptr noundef %14, ptr noundef %17, ptr noundef nonnull align 8 dereferenceable(58) %3) #16
  call void @llvm.lifetime.end.p0(i64 64, ptr nonnull %3)
  %21 = icmp eq i32 %20, 3
  %.pre6 = load ptr, ptr %5, align 8
  br i1 %21, label %22, label %23

22:                                               ; preds = %11
  call void @_ZN4llvm11Instruction18setHasNoSignedWrapEb(ptr noundef nonnull align 8 dereferenceable(72) %.pre6, i1 noundef zeroext true) #16
  %.pre = load ptr, ptr %5, align 8
  br label %23

23:                                               ; preds = %22, %11, %8
  %24 = phi ptr [ %9, %8 ], [ %.pre, %22 ], [ %.pre6, %11 ]
  %.0 = phi i1 [ false, %8 ], [ true, %22 ], [ false, %11 ]
  %25 = call noundef zeroext i1 @_ZNK4llvm11Instruction17hasNoUnsignedWrapEv(ptr noundef nonnull align 8 dereferenceable(72) %24) #17
  br i1 %25, label %37, label %26

26:                                               ; preds = %23
  %27 = getelementptr inbounds nuw i8, ptr %0, i64 16
  %28 = load ptr, ptr %27, align 8
  %29 = load ptr, ptr %28, align 8
  %30 = getelementptr inbounds nuw i8, ptr %0, i64 24
  %31 = load ptr, ptr %30, align 8
  %32 = load ptr, ptr %31, align 8
  call void @llvm.lifetime.start.p0(i64 64, ptr nonnull %2)
  %33 = getelementptr inbounds nuw i8, ptr %4, i64 88
  call void @llvm.memcpy.p0.p0.i64(ptr noundef nonnull align 8 dereferenceable(64) %2, ptr noundef nonnull align 8 dereferenceable(64) %33, i64 64, i1 false)
  %34 = getelementptr inbounds nuw i8, ptr %2, i64 32
  store ptr %24, ptr %34, align 8, !alias.scope !248
  %35 = call noundef i32 @_ZN4llvm29computeOverflowForUnsignedSubEPKNS_5ValueES2_RKNS_13SimplifyQueryE(ptr noundef %29, ptr noundef %32, ptr noundef nonnull align 8 dereferenceable(58) %2) #16
  call void @llvm.lifetime.end.p0(i64 64, ptr nonnull %2)
  %36 = icmp eq i32 %35, 3
  %.pre8 = load ptr, ptr %5, align 8
  br i1 %36, label %.thread, label %37

.thread:                                          ; preds = %26
  call void @_ZN4llvm11Instruction20setHasNoUnsignedWrapEb(ptr noundef nonnull align 8 dereferenceable(72) %.pre8, i1 noundef zeroext true) #16
  %.pre7 = load ptr, ptr %5, align 8
  br label %39

37:                                               ; preds = %26, %23
  %38 = phi ptr [ %24, %23 ], [ %.pre8, %26 ]
  %spec.select = select i1 %.0, ptr %38, ptr null
  br label %39

39:                                               ; preds = %37, %.thread, %1
  %.04 = phi ptr [ %7, %1 ], [ %.pre7, %.thread ], [ %spec.select, %37 ]
  ret ptr %.04
}